Certificate:
    Data:
        Version: 3 (0x2)
        Serial Number: 4096 (0x1000)
        Signature Algorithm: sha256WithRSAEncryption
        Issuer: C=AU, ST=Some-State, O=localhost, OU=localhost-root-ca, CN=caname
        Validity
            Not Before: Feb 16 16:07:59 2020 GMT
            Not After : Feb 15 16:07:59 2021 GMT
        Subject: C=AU, ST=Some-State, O=localhost, OU=localhost-https, CN=localhost:3000
        Subject Public Key Info:
            Public Key Algorithm: rsaEncryption
                RSA Public-Key: (2048 bit)
                Modulus:
                    00:c4:89:31:3f:d4:ef:7c:b8:c3:0f:39:b2:18:bd:
                    8c:08:6a:cf:68:ab:c4:a8:0d:c8:e8:bd:14:0b:c3:
                    ad:78:27:a7:99:18:88:36:bd:c1:2f:8c:b3:2a:ac:
                    3e:24:1d:2e:df:0c:01:ee:0d:bd:74:ea:25:4e:0b:
                    4b:d7:bf:54:d3:21:70:0a:ae:0b:ba:08:b5:b9:a4:
                    d2:5a:bc:08:f3:60:fc:0a:41:6a:ff:72:05:fd:41:
                    7d:9b:98:5e:2d:3e:b3:21:20:87:af:d5:7c:be:7c:
                    44:f3:0e:be:85:a4:5c:4d:6d:84:7f:9c:cc:df:be:
                    28:a3:16:18:d1:3e:9e:42:12:a1:06:b3:f5:22:63:
                    a3:7d:44:be:e5:ef:20:73:02:a7:55:09:b8:68:f2:
                    fc:37:94:a4:72:90:82:db:74:de:a5:b0:bf:16:4d:
                    71:c9:dc:8d:89:82:be:63:48:1d:db:4e:19:93:8a:
                    04:04:45:4e:b3:b5:74:81:fc:14:c1:6f:64:84:f7:
                    5a:5d:d8:98:bb:51:e7:6d:eb:ac:4d:d7:88:20:2d:
                    bf:a6:fb:8a:59:fc:d7:b7:aa:ef:51:97:7b:78:f7:
                    12:2f:f9:3b:e8:ed:41:b2:59:09:ec:69:6f:fc:2e:
                    b5:2b:34:49:dd:5a:00:80:b8:bf:c5:4a:07:77:02:
                    89:21
                Exponent: 65537 (0x10001)
        X509v3 extensions:
            X509v3 Authority Key Identifier: 
                DirName:/C=AU/ST=Some-State/O=localhost/OU=localhost-root-ca/CN=caname
                serial:0A:E4:19:20:F1:C0:01:08:3B:7C:B5:5C:58:29:4D:6B:B0:A9:EE:3E

            X509v3 Basic Constraints: 
                CA:FALSE
            X509v3 Key Usage: 
                Digital Signature, Non Repudiation, Key Encipherment, Data Encipherment
            X509v3 Subject Alternative Name: 
                DNS:localhost
    Signature Algorithm: sha256WithRSAEncryption
         69:11:07:45:61:03:44:9c:05:67:57:ac:b3:43:10:8a:f9:72:
         52:07:57:3d:56:53:3c:8a:93:a4:ef:fd:d4:a3:ed:15:19:eb:
         7e:d5:38:8b:5d:f2:49:8d:c0:41:d6:6b:60:90:33:80:c4:05:
         83:b3:b4:a9:ce:ee:f1:b6:ac:68:a5:53:97:1f:d5:7e:34:c5:
         ce:2c:e9:41:26:d6:15:1e:39:50:1d:0b:51:c0:35:93:79:76:
         d0:35:b3:c4:a2:82:2b:59:00:0a:9a:d7:ac:62:6a:0c:0b:3f:
         37:9b:a4:37:ac:30:98:81:d5:b8:6f:05:3b:de:e6:12:79:ad:
         19:5a:82:b9:55:8e:31:5c:e8:20:a7:84:d3:b4:ce:ab:f4:3a:
         ad:16:d2:b1:9b:9e:70:ed:95:dd:9d:ac:64:90:4e:d2:f5:09:
         2d:64:55:ba:d6:24:bb:a5:70:2c:46:c5:8d:47:4b:1b:31:b6:
         25:62:35:04:7e:ac:57:36:03:fe:98:19:b0:bf:06:8e:ed:b6:
         91:5a:cf:84:50:4a:c6:17:0b:13:33:e0:52:b9:ce:cf:50:1d:
         71:18:80:96:8f:08:ba:1b:58:c6:23:aa:99:25:77:52:54:c3:
         60:96:6c:d8:00:59:bf:77:b9:96:ee:bf:f7:4b:32:5b:b8:c6:
         c3:af:20:cc
-----BEGIN CERTIFICATE-----
MIIEBjCCAu6gAwIBAgICEAAwDQYJKoZIhvcNAQELBQAwYzELMAkGA1UEBhMCQVUx
EzARBgNVBAgMClNvbWUtU3RhdGUxEjAQBgNVBAoMCWxvY2FsaG9zdDEaMBgGA1UE
CwwRbG9jYWxob3N0LXJvb3QtY2ExDzANBgNVBAMMBmNhbmFtZTAeFw0yMDAyMTYx
NjA3NTlaFw0yMTAyMTUxNjA3NTlaMGkxCzAJBgNVBAYTAkFVMRMwEQYDVQQIDApT
b21lLVN0YXRlMRIwEAYDVQQKDAlsb2NhbGhvc3QxGDAWBgNVBAsMD2xvY2FsaG9z
dC1odHRwczEXMBUGA1UEAwwObG9jYWxob3N0OjMwMDAwggEiMA0GCSqGSIb3DQEB
AQUAA4IBDwAwggEKAoIBAQDEiTE/1O98uMMPObIYvYwIas9oq8SoDcjovRQLw614
J6eZGIg2vcEvjLMqrD4kHS7fDAHuDb106iVOC0vXv1TTIXAKrgu6CLW5pNJavAjz
YPwKQWr/cgX9QX2bmF4tPrMhIIev1Xy+fETzDr6FpFxNbYR/nMzfviijFhjRPp5C
EqEGs/UiY6N9RL7l7yBzAqdVCbho8vw3lKRykILbdN6lsL8WTXHJ3I2Jgr5jSB3b
ThmTigQERU6ztXSB/BTBb2SE91pd2Ji7Uedt66xN14ggLb+m+4pZ/Ne3qu9Rl3t4
9xIv+Tvo7UGyWQnsaW/8LrUrNEndWgCAuL/FSgd3AokhAgMBAAGjgb0wgbowgYkG
A1UdIwSBgTB/oWekZTBjMQswCQYDVQQGEwJBVTETMBEGA1UECAwKU29tZS1TdGF0
ZTESMBAGA1UECgwJbG9jYWxob3N0MRowGAYDVQQLDBFsb2NhbGhvc3Qtcm9vdC1j
YTEPMA0GA1UEAwwGY2FuYW1lghQK5Bkg8cABCDt8tVxYKU1rsKnuPjAJBgNVHRME
AjAAMAsGA1UdDwQEAwIE8DAUBgNVHREEDTALgglsb2NhbGhvc3QwDQYJKoZIhvcN
AQELBQADggEBAGkRB0VhA0ScBWdXrLNDEIr5clIHVz1WUzyKk6Tv/dSj7RUZ637V
OItd8kmNwEHWa2CQM4DEBYOztKnO7vG2rGilU5cf1X40xc4s6UEm1hUeOVAdC1HA
NZN5dtA1s8SigitZAAqa16xiagwLPzebpDesMJiB1bhvBTve5hJ5rRlagrlVjjFc
6CCnhNO0zqv0Oq0W0rGbnnDtld2drGSQTtL1CS1kVbrWJLulcCxGxY1HSxsxtiVi
NQR+rFc2A/6YGbC/Bo7ttpFaz4RQSsYXCxMz4FK5zs9QHXEYgJaPCLobWMYjqpkl
d1JUw2CWbNgAWb93uZbuv/dLMlu4xsOvIMw=
-----END CERTIFICATE-----
